(dp0
S''
p1
(lp2
S'01-11-023-1.xls'
p3
ag3
aS'02-11-004-1.xls'
p4
aS'02-11-008-1.xls'
p5
aS'02-11-051-1.xls'
p6
aS'03-11-005-1.xls'
p7
aS'03-11-043-1.xls'
p8
aS'05-11-004-1.xls'
p9
aS'05-11-015-1.xls'
p10
aS'05-11-031-1.xls'
p11
ag11
aS'06-11-005-1.xls'
p12
aS'06-11-018-1.xls'
p13
aS'07-11-018-1.xls'
p14
aS'07-11-026-1.xls'
p15
aS'07-11-037-1.xls'
p16
aS'07-11-040-1.xls'
p17
aS'12-11-007-1.xls'
p18
aS'12-11-011-1.xls'
p19
aS'13-11-010-1.xls'
p20
aS'14-11-014-1.xls'
p21
aS'15-11-004-1.xls'
p22
ag22
aS'15-11-027-1.xls'
p23
aS'18-11-006-1.xls'
p24
aS'18-11-009-1.xls'
p25
aS'18-11-011-1.xls'
p26
ag26
ag26
aS'19-11-001-1.xls'
p27
aS'20-11-015-1.xls'
p28
asVimportant role
p29
(lp30
S'02-11-014-1.xls'
p31
asVshow difference mortality
p32
(lp33
S'19-11-011-1.xls'
p34
asVevidence
p35
(lp36
S'14-11-021-1.xls'
p37
ag37
asVmight regulate
p38
(lp39
S'09-11-013-1.xls'
p40
asVstatistical significant change
p41
(lp42
S'12-11-008-1.xls'
p43
asVaids
p44
(lp45
S'17-11-012-1.xls'
p46
asVcaused
p47
(lp48
S'05-11-021-1.xls'
p49
aS'08-11-029-1.xls'
p50
aS'13-11-012-1.xls'
p51
asVfailing improve
p52
(lp53
S'14-11-005-1.xls'
p54
asVhigher rates
p55
(lp56
S'04-11-013-1.xls'
p57
asVleads
p58
(lp59
g5
aS'02-11-019-1.xls'
p60
ag60
aS'03-11-037-1.xls'
p61
aS'07-11-023-1.xls'
p62
asVrespondent experienced
p63
(lp64
S'01-11-022-1.xls'
p65
asVcould control
p66
(lp67
S'15-11-026-1.xls'
p68
asVstops adhesions
p69
(lp70
S'12-11-002-1.xls'
p71
asVdramatically improve
p72
(lp73
S'13-11-015-1.xls'
p74
asVshowed differences anaesthesia
p75
(lp76
S'15-11-019-1.xls'
p77
asVsignificant sex difference
p78
(lp79
S'20-11-003-1.xls'
p80
asVcauses
p81
(lp82
S'02-11-045-1.xls'
p83
aS'07-11-025-1.xls'
p84
aS'07-11-030-1.xls'
p85
aS'07-11-035-1.xls'
p86
aS'09-11-007-1.xls'
p87
aS'09-11-012-1.xls'
p88
asVmay improved patient care
p89
(lp90
S'17-11-010-1.xls'
p91
asVsignificant extra risk
p92
(lp93
S'01-11-009-1.xls'
p94
asVcould allow
p95
(lp96
S'08-11-030-1.xls'
p97
asVactually effective key trigger alzheimers development digested form
p98
(lp99
S'13-11-002-1.xls'
p100
asVdamaged mitochondria
p101
(lp102
g51
asV0
p103
(lp104
g10
asVhelps
p105
(lp106
S'02-11-037-1.xls'
p107
aS'05-11-005-1.xls'
p108
aS'09-11-008-1.xls'
p109
aS'14-11-015-1.xls'
p110
asVweakening
p111
(lp112
S'02-11-050-1.xls'
p113
asVcould lead
p114
(lp115
S'14-11-010-1.xls'
p116
asValtered drug shown retain ability kill infection
p117
(lp118
S'06-11-022-1.xls'
p119
asVmajor contribution
p120
(lp121
S'08-11-010-1.xls'
p122
asVeffective improving
p123
(lp124
S'10-11-011-1.xls'
p125
asVprotective
p126
(lp127
S'02-11-001-1.xls'
p128
asVrisk
p129
(lp130
S'01-11-010-1.xls'
p131
aS'03-11-013-1.xls'
p132
aS'05-11-016-1.xls'
p133
aS'07-11-027-1.xls'
p134
ag17
aS'14-11-018-1.xls'
p135
asVhelp predict
p136
(lp137
g97
asVgives insight
p138
(lp139
S'03-11-003-1.xls'
p140
asVunique ways
p141
(lp142
S'06-11-021-1.xls'
p143
asVcould offer
p144
(lp145
S'14-11-029-1.xls'
p146
asVevery
p147
(lp148
S'07-11-010-1.xls'
p149
asVcould easily result
p150
(lp151
g116
asVaffect
p152
(lp153
S'01-11-008-1.xls'
p154
aS'02-11-013-1.xls'
p155
aS'03-11-029-1.xls'
p156
ag49
aS'07-11-013-1.xls'
p157
aS'09-11-015-1.xls'
p158
aS'11-11-006-1.xls'
p159
asVdifference
p160
(lp161
S'06-11-012-1.xls'
p162
asVrisks increased
p163
(lp164
S'14-11-007-1.xls'
p165
asVtreating
p166
(lp167
S'12-11-015-1.xls'
p168
asVinstrumental shaping
p169
(lp170
S'11-11-001-1.xls'
p171
asVdie
p172
(lp173
S'03-11-011-1.xls'
p174
aS'06-11-006-1.xls'
p175
asVfare less well
p176
(lp177
S'02-11-048-1.xls'
p178
asVoffers hope
p179
(lp180
S'01-11-020-1.xls'
p181
asVlonger pregnancy bigger brain
p182
(lp183
S'16-11-002-1.xls'
p184
asVmarked decline
p185
(lp186
S'03-11-036-1.xls'
p187
asVfailed reach levels
p188
(lp189
S'10-11-014-1.xls'
p190
asVlikely survive
p191
(lp192
S'12-11-030-1.xls'
p193
asVsuccessful sporting
p194
(lp195
g146
asVenhance
p196
(lp197
S'06-11-002-1.xls'
p198
aS'13-11-018-1.xls'
p199
asVspecifically recognise
p200
(lp201
S'08-11-006-1.xls'
p202
asVmay also regulate
p203
(lp204
S'12-11-018-1.xls'
p205
asVunaware
p206
(lp207
S'01-11-003-1.xls'
p208
asVprevent
p209
(lp210
S'02-11-052-1.xls'
p211
aS'04-11-007-1.xls'
p212
aS'07-11-024-1.xls'
p213
aS'08-11-019-1.xls'
p214
ag68
asVreduction deaths
p215
(lp216
S'07-11-029-1.xls'
p217
ag217
asVcould used prevent
p218
(lp219
S'12-11-012-1.xls'
p220
asVoverall difference
p221
(lp222
S'04-11-006-1.xls'
p223
asVcould thwart
p224
(lp225
S'05-11-035-1.xls'
p226
asVprediction
p227
(lp228
S'06-11-001-1.xls'
p229
asVboots
p230
(lp231
g198
asVclearly improves
p232
(lp233
S'02-11-032-1.xls'
p234
asVlikely
p235
(lp236
g131
aS'01-11-011-1.xls'
p237
aS'02-11-017-1.xls'
p238
aS'02-11-036-1.xls'
p239
aS'03-11-010-1.xls'
p240
aS'04-11-002-1.xls'
p241
aS'04-11-012-1.xls'
p242
ag242
aS'04-11-016-1.xls'
p243
aS'05-11-001-1.xls'
p244
aS'05-11-008-1.xls'
p245
aS'06-11-003-1.xls'
p246
ag85
aS'08-11-002-1.xls'
p247
aS'08-11-023-1.xls'
p248
aS'08-11-025-1.xls'
p249
aS'09-11-002-1.xls'
p250
aS'10-11-003-1.xls'
p251
ag159
aS'13-11-001-1.xls'
p252
aS'14-11-001-1.xls'
p253
ag21
ag21
ag135
ag37
aS'15-11-001-1.xls'
p254
ag46
ag80
aS'20-11-005-1.xls'
p255
aS'20-11-007-1.xls'
p256
asVpicked
p257
(lp258
S'03-11-042-1.xls'
p259
asVtreat cancer
p260
(lp261
S'09-11-004-1.xls'
p262
asVproves successful
p263
(lp264
g262
asVx times higher
p265
(lp266
S'09-11-001-1.xls'
p267
asVimproved equally
p268
(lp269
S'14-11-009-1.xls'
p270
asVmaking cancer stem cells sensitive
p271
(lp272
S'04-11-009-1.xls'
p273
asVresponsible regulating
p274
(lp275
S'03-11-028-1.xls'
p276
ag205
asVfavour
p277
(lp278
g199
asVone four infants die fly-related pneumonia live india
p279
(lp280
S'05-11-032-1.xls'
p281
asVhelped recover
p282
(lp283
S'12-11-006-1.xls'
p284
asVpotential causal link
p285
(lp286
S'19-11-002-1.xls'
p287
asVmay caused
p288
(lp289
S'18-11-013-1.xls'
p290
asVuncoupling
p291
(lp292
S'20-11-012-1.xls'
p293
asVmight cause
p294
(lp295
S'03-11-020-1.xls'
p296
asVmay possible identify
p297
(lp298
S'02-11-028-1.xls'
p299
asVfalling
p300
(lp301
g162
asVincreasing
p302
(lp303
S'06-11-027-1.xls'
p304
aS'14-11-030-1.xls'
p305
asVboost
p306
(lp307
g198
asVseeks
p308
(lp309
g252
asVmainly attribuable
p310
(lp311
g57
asVwould reduce
p312
(lp313
S'06-11-020-1.xls'
p314
aS'07-11-017-1.xls'
p315
asVlikely work best
p316
(lp317
g305
asVincreasing risk
p318
(lp319
S'14-11-012-1.xls'
p320
ag21
asVexplained need
p321
(lp322
S'05-11-036-1.xls'
p323
asVmay causing
p324
(lp325
g290
asVcould shape
p326
(lp327
g24
asVappears increase
p328
(lp329
g296
asVstopping
p330
(lp331
S'09-11-005-1.xls'
p332
aS'14-11-002-1.xls'
p333
asVsometimes show
p334
(lp335
g51
asVlet
p336
(lp337
g46
asVpositive impact
p338
(lp339
S'10-11-009-1.xls'
p340
ag125
asVaid
p341
(lp342
S'01-11-012-1.xls'
p343
aS'06-11-028-1.xls'
p344
asVcould combat
p345
(lp346
S'05-11-007-1.xls'
p347
asVstrong
p348
(lp349
g190
asVchange
p350
(lp351
g54
asVreally best medicine
p352
(lp353
S'09-11-003-1.xls'
p354
asVlevels protein much
p355
(lp356
g109
asVreliable way directing
p357
(lp358
S'09-11-017-1.xls'
p359
asVsignificant reductions
p360
(lp361
g212
asVsuccessful identifying
p362
(lp363
S'14-11-024-1.xls'
p364
asVinvolved
p365
(lp366
g84
aS'07-11-039-1.xls'
p367
aS'12-11-019-1.xls'
p368
asVlikely involved
p369
(lp370
S'02-11-027-1.xls'
p371
asVcould detect
p372
(lp373
g259
asVcould substantially reduce
p374
(lp375
g315
asVmay connected
p376
(lp377
S'15-11-011-1.xls'
p378
asVstrongly influenced
p379
(lp380
g5
asVfewer incidence
p381
(lp382
S'16-11-007-1.xls'
p383
asVresulting
p384
(lp385
S'19-11-004-1.xls'
p386
asVpick
p387
(lp388
S'01-11-013-1.xls'
p389
asVreading direct speech activate
p390
(lp391
S'06-11-017-1.xls'
p392
asVfell
p393
(lp394
S'13-11-013-1.xls'
p395
asVmight find significantly harder
p396
(lp397
S'08-11-032-1.xls'
p398
asVlowers
p399
(lp400
S'01-11-002-1.xls'
p401
asVseems critical
p402
(lp403
S'02-11-031-1.xls'
p404
asVrelated increased
p405
(lp406
g43
asVseemed unwilling
p407
(lp408
S'15-11-007-1.xls'
p409
asVstrong effect
p410
(lp411
S'19-11-003-1.xls'
p412
asVincrease risk poor outcome
p413
(lp414
S'08-11-026-1.xls'
p415
asVovernight obese people dulled sensitivity sweetness
p416
(lp417
S'02-11-023-1.xls'
p418
asVexplained
p419
(lp420
g11
asVbrought
p421
(lp422
S'14-11-004-1.xls'
p423
asVweaker
p424
(lp425
g386
asVhelps make
p426
(lp427
S'15-11-020-1.xls'
p428
asVsignificantly higher
p429
(lp430
S'03-11-018-1.xls'
p431
ag122
asVholds promise
p432
(lp433
S'01-11-015-1.xls'
p434
asVshowed linear relationship
p435
(lp436
S'03-11-024-1.xls'
p437
asVcould completely resolved
p438
(lp439
S'07-11-012-1.xls'
p440
asVgenet encourage fat storage
p441
(lp442
S'05-11-025-1.xls'
p443
asVpredicted
p444
(lp445
g16
ag19
asVsignificantly fewer
p446
(lp447
g154
asVuse
p448
(lp449
S'05-11-017-1.xls'
p450
asVfindings deepen understanding genetic changes lead heart disease
p451
(lp452
S'03-11-041-1.xls'
p453
asVthree times likely
p454
(lp455
S'02-11-022-1.xls'
p456
aS'07-11-004-1.xls'
p457
aS'19-11-012-1.xls'
p458
asVdirect link
p459
(lp460
g347
ag171
asVsuppress activity
p461
(lp462
g214
asVdouble
p463
(lp464
S'18-11-012-1.xls'
p465
asVlong periods stress system becomes overloaded mechanism lead cell death activate rate 2
p466
(lp467
S'13-11-014-1.xls'
p468
asVmay unable
p469
(lp470
S'09-11-011-1.xls'
p471
asVgene makes chickens susceptible disease
p472
(lp473
S'05-11-034-1.xls'
p474
asVreveal differences
p475
(lp476
S'18-11-004-1.xls'
p477
asVmakes better
p478
(lp479
S'20-11-020-1.xls'
p480
asVdelivers new way treat
p481
(lp482
g108
asVcommunications even weaker
p483
(lp484
g156
asVlowering
p485
(lp486
g304
asVplay role
p487
(lp488
S'02-11-053-1.xls'
p489
ag443
aS'07-11-028-1.xls'
p490
aS'08-11-011-1.xls'
p491
asVmuch greater
p492
(lp493
S'04-11-003-1.xls'
p494
ag333
asVmay able use control
p495
(lp496
g68
asVbecomes
p497
(lp498
g83
aS'05-11-026-1.xls'
p499
asVmay help slow progression
p500
(lp501
S'02-11-043-1.xls'
p502
asVcorrected
p503
(lp504
S'03-11-038-1.xls'
p505
asVscientists see
p506
(lp507
S'14-11-022-1.xls'
p508
asVinteraction
p509
(lp510
g332
asVcontrolling
p511
(lp512
S'08-11-017-1.xls'
p513
asVartificial pancreas help maintain near-normal glucose labels
p514
(lp515
S'03-11-001-1.xls'
p516
asVblocking
p517
(lp518
g84
asValso spot
p519
(lp520
S'12-11-014-1.xls'
p521
asVpotential role
p522
(lp523
S'15-11-023-1.xls'
p524
asVcould formed
p525
(lp526
g404
asVlasting beneficial effect
p527
(lp528
S'01-11-001-1.xls'
p529
asVcould help curb
p530
(lp531
S'03-11-034-1.xls'
p532
asVgave advantage
p533
(lp534
g22
asVreducing
p535
(lp536
S'09-11-014-1.xls'
p537
asVinfluenza second-most common infection identified children pneumonia contributes substantially burden hospitalisation mortality young children
p538
(lp539
g281
asVsignificant improvement test scores
p540
(lp541
S'15-11-012-1.xls'
p542
asVmay reduce
p543
(lp544
g174
ag175
asVshow signs
p545
(lp546
g17
asVguards
p547
(lp548
S'03-11-044-1.xls'
p549
asVless salt
p550
(lp551
S'20-11-011-1.xls'
p552
asVappear different
p553
(lp554
S'15-11-016-1.xls'
p555
asVapparent preference towards
p556
(lp557
g398
asVsuccessfully treated
p558
(lp559
g262
asVdissolve
p560
(lp561
g248
asVfunction broad drivers
p562
(lp563
S'03-11-031-1.xls'
p564
asVcontrol
p565
(lp566
g12
aS'07-11-001-1.xls'
p567
ag68
asVcould powerful way suppressing
p568
(lp569
g332
asVmade miscarriage likely
p570
(lp571
S'07-11-038-1.xls'
p572
asVth highest
p573
(lp574
S'20-11-004-1.xls'
p575
asVlinks
p576
(lp577
g240
asVgive
p578
(lp579
g8
asVpredict
p580
(lp581
S'05-11-012-1.xls'
p582
aS'06-11-004-1.xls'
p583
ag247
ag249
ag97
aS'15-11-008-1.xls'
p584
asVproduced similar results
p585
(lp586
S'07-11-042-1.xls'
p587
asVshare
p588
(lp589
S'06-11-019-1.xls'
p590
asValmost effective
p591
(lp592
S'07-11-009-1.xls'
p593
asVidentified cellular mechanism responsible captivating effective repair
p594
(lp595
S'02-11-038-1.xls'
p596
asVdevelop diabetes lower women
p597
(lp598
S'06-11-023-1.xls'
p599
asVaccelerate rate
p600
(lp601
g51
asVkeeps osteoporosis away
p602
(lp603
S'02-11-018-1.xls'
p604
asVmain step change social behaviour occurred privates switched mainly active night active day
p605
(lp606
S'15-11-018-1.xls'
p607
asVlow levels
p608
(lp609
S'20-11-014-1.xls'
p610
asVtotaled
p611
(lp612
g23
asVmight basis
p613
(lp614
S'03-11-033-1.xls'
p615
asVinfluenced
p616
(lp617
g9
ag491
aS'14-11-017-1.xls'
p618
ag428
asVsave lives
p619
(lp620
S'07-11-020-1.xls'
p621
asVmay need
p622
(lp623
g471
asVmay strengthen
p624
(lp625
S'02-11-034-1.xls'
p626
asVacts
p627
(lp628
g572
asVdamage
p629
(lp630
g248
ag248
asV36 reduced risk mortality
p631
(lp632
g34
asVpotential save
p633
(lp634
g146
asVnecessarily case older children pick reading quickly
p635
(lp636
S'20-11-013-1.xls'
p637
asVinfluences
p638
(lp639
g86
ag618
ag412
asVoverall increase
p640
(lp641
g165
asVsignificantly potent non-specific trees able inhibit effect cells protecting
p642
(lp643
g214
asVdifficult cortex control emotional response
p644
(lp645
g156
asVable successfully switch
p646
(lp647
S'13-11-017-1.xls'
p648
asVsaw increase
p649
(lp650
S'14-11-006-1.xls'
p651
asVlittle evidence effectiveness
p652
(lp653
g54
asVuse regions
p654
(lp655
g590
asValso conferred greater risk
p656
(lp657
S'14-11-020-1.xls'
p658
asVincrease risk markets disease
p659
(lp660
g474
asVhazard
p661
(lp662
S'05-11-019-1.xls'
p663
asVlearn pace
p664
(lp665
g637
asVproduce
p666
(lp667
g567
asVused predict
p668
(lp669
g437
ag584
asVsteep decline
p670
(lp671
S'10-11-012-1.xls'
p672
asVrevealed
p673
(lp674
g343
asVimportant factor
p675
(lp676
S'12-11-016-1.xls'
p677
asVsimilar reduction brain activity
p678
(lp679
S'03-11-022-1.xls'
p680
asVcould fulfill
p681
(lp682
S'17-11-006-1.xls'
p683
asVsix made virtually strains superb
p684
(lp685
S'05-11-028-1.xls'
p686
asV2.6 times higher
p687
(lp688
S'14-11-026-1.xls'
p689
asVcorrelate
p690
(lp691
S'02-11-035-1.xls'
p692
asVlow levels iron blood strong risk factor blood clots
p693
(lp694
S'07-11-043-1.xls'
p695
asVnegative effect
p696
(lp697
S'11-11-005-1.xls'
p698
asVareas became active
p699
(lp700
g392
asVcould improve detection rates
p701
(lp702
S'08-11-014-1.xls'
p703
asVcompletely disrupt
p704
(lp705
S'01-11-021-1.xls'
p706
asVswitch
p707
(lp708
g567
asVfound effective warfare
p709
(lp710
S'05-11-024-1.xls'
p711
asVallow
p712
(lp713
S'06-11-016-1.xls'
p714
asVfound non-invasion way harness rich
p715
(lp716
g508
asVpreventive
p717
(lp718
S'13-11-016-1.xls'
p719
asVshown identify
p720
(lp721
g389
asVwould result
p722
(lp723
g552
asVtalk
p724
(lp725
g8
asVkey role played
p726
(lp727
g273
asVpredisposes
p728
(lp729
g371
asVcould manage
p730
(lp731
g19
asVhelp
p732
(lp733
g626
ag549
ag354
aS'12-11-028-1.xls'
p734
ag146
ag584
asVproduces
p735
(lp736
g499
asVregulates
p737
(lp738
g205
asVdeveloped
p739
(lp740
g383
asVdifferences
p741
(lp742
g25
asVmade communications weaker
p743
(lp744
g156
asVhelp diagnose
p745
(lp746
g146
asVmay reliable
p747
(lp748
g587
asVstability
p749
(lp750
g626
asVhelp deal
p751
(lp752
S'15-11-014-1.xls'
p753
asVgreatly enhance
p754
(lp755
g9
asVhelps us
p756
(lp757
g529
ag529
asVclosely related similar susceptible sinuses
p758
(lp759
S'05-11-027-1.xls'
p760
asVpossible reason
p761
(lp762
g610
asVrepletion
p763
(lp764
g113
asVresponsive
p765
(lp766
g249
asVfall dramatically
p767
(lp768
S'20-11-006-1.xls'
p769
asVtendency
p770
(lp771
S'03-11-016-1.xls'
p772
asVcould increase risk caffein toxicity
p773
(lp774
S'06-11-025-1.xls'
p775
asVsimilar pattern brain activity
p776
(lp777
g680
asVcauses increases
p778
(lp779
S'10-11-008-1.xls'
p780
asVsusceptible
p781
(lp782
S'03-11-021-1.xls'
p783
asVincrease poor outcome
p784
(lp785
g555
asVclear evidence
p786
(lp787
g37
asVbetter
p788
(lp789
g16
ag359
ag359
aS'13-11-003-1.xls'
p790
asVdont transmit
p791
(lp792
g7
asVkey role
p793
(lp794
S'08-11-021-1.xls'
p795
asVhelps prevent disease also slow progression
p796
(lp797
g502
asVrelate
p798
(lp799
S'14-11-023-1.xls'
p800
asVseems couple
p801
(lp802
g293
asValter
p803
(lp804
g567
ag62
aS'15-11-021-1.xls'
p805
asVmuch effective medicine
p806
(lp807
S'03-11-004-1.xls'
p808
asVsignificant reduction
p809
(lp810
g212
aS'10-11-001-1.xls'
p811
asVaffected
p812
(lp813
g698
ag253
asVgreater
p814
(lp815
g3
aS'02-11-006-1.xls'
p816
aS'02-11-009-1.xls'
p817
asVhigh rates suicide happy places
p818
(lp819
g575
asVprevented
p820
(lp821
g211
aS'09-11-006-1.xls'
p822
asVkiller
p823
(lp824
S'06-11-015-1.xls'
p825
asVleads improvement
p826
(lp827
S'02-11-024-1.xls'
p828
asVmay help explain increased risk
p829
(lp830
g401
asVeven marked
p831
(lp832
g790
asVdisrupted
p833
(lp834
g83
asVselective kills
p835
(lp836
g220
asVsubstantially improve
p837
(lp838
S'02-11-042-1.xls'
p839
asVeffects
p840
(lp841
g698
asVwould real
p842
(lp843
S'20-11-001-1.xls'
p844
asVimpaired
p845
(lp846
g49
asVmust act together
p847
(lp848
g404
asVcould offer huge benefit
p849
(lp850
S'07-11-014-1.xls'
p851
asVassociation
p852
(lp853
g128
ag239
ag513
asVmay beneficial
p854
(lp855
S'03-11-026-1.xls'
p856
asVsignificantly increasing
p857
(lp858
S'19-11-008-1.xls'
p859
asVevidence symptoms end birth healthy baby
p860
(lp861
S'02-11-012-1.xls'
p862
asVshouted
p863
(lp864
g13
asVincrease risks
p865
(lp866
g135
asVlies
p867
(lp868
g323
asVcould play part
p869
(lp870
S'04-11-015-1.xls'
p871
asVactually effective
p872
(lp873
g4
asVdrop
p874
(lp875
g769
asVarrested
p876
(lp877
S'17-11-002-1.xls'
p878
asVidentified
p879
(lp880
g389
asVdoesn appear increase risk
p881
(lp882
g43
asVshowed increased brain activity
p883
(lp884
S'19-11-014-1.xls'
p885
asVgood
p886
(lp887
g340
ag22
asVimprovements
p888
(lp889
S'16-11-005-1.xls'
p890
asVstopped
p891
(lp892
S'07-11-033-1.xls'
p893
ag822
ag423
asVcontribute risk
p894
(lp895
S'04-11-010-1.xls'
p896
asVsignificant benefits
p897
(lp898
S'15-11-010-1.xls'
p899
asVpossible association
p900
(lp901
g255
asVfound
p902
(lp903
g4
ag443
asVsurvival rates higher among higher number well-developed vessels
p904
(lp905
g34
asVsignificantly higher test scores
p906
(lp907
g542
asVnew link
p908
(lp909
S'04-11-008-1.xls'
p910
asVraises
p911
(lp912
g805
asVmight able break
p913
(lp914
g706
asVactivate
p915
(lp916
S'03-11-040-1.xls'
p917
aS'05-11-020-1.xls'
p918
ag84
asVsignificantly different
p919
(lp920
S'06-11-026-1.xls'
p921
ag253
asVmay encourage
p922
(lp923
S'02-11-002-1.xls'
p924
asVcould initiate
p925
(lp926
S'15-11-017-1.xls'
p927
asVmuch greater impact peoples lives
p928
(lp929
g689
asVgive much clearer insight process
p930
(lp931
S'05-11-037-1.xls'
p932
asVreduce
p933
(lp934
S'05-11-002-1.xls'
p935
ag567
ag593
aS'08-11-020-1.xls'
p936
ag125
aS'11-11-002-1.xls'
p937
ag110
aS'15-11-015-1.xls'
p938
ag412
asVrelated
p939
(lp940
g604
ag465
ag458
asVbreak bank
p941
(lp942
g6
asVimportant link
p943
(lp944
g109
asVreduce greatly
p945
(lp946
S'12-11-024-1.xls'
p947
asVfewer
p948
(lp949
g208
ag246
asVable take part
p950
(lp951
g8
asVblocks
p952
(lp953
S'03-11-025-1.xls'
p954
asVmajor prediction
p955
(lp956
g246
asVcould directly linked
p957
(lp958
S'15-11-013-1.xls'
p959
asVplay part
p960
(lp961
g157
asVstill experienced enormous sleep problems
p962
(lp963
S'15-11-025-1.xls'
p964
asVclear link
p965
(lp966
g243
asVsuggests appearance make foetus vulnerable
p967
(lp968
g213
asVdriving
p969
(lp970
g564
ag12
aS'07-11-008-1.xls'
p971
asVtwice risk
p972
(lp973
g133
asVmight risk
p974
(lp975
S'07-11-005-1.xls'
p976
asVmuch faster
p977
(lp978
S'18-11-008-1.xls'
p979
asVrisk almost halted
p980
(lp981
g537
asVcrucial
p982
(lp983
g706
aS'05-11-009-1.xls'
p984
asVmay root
p985
(lp986
g610
asVconsistent decrease
p987
(lp988
S'20-11-019-1.xls'
p989
asVincrease
p990
(lp991
g237
aS'02-11-040-1.xls'
p992
ag49
aS'07-11-015-1.xls'
p993
ag937
aS'15-11-002-1.xls'
p994
aS'18-11-014-1.xls'
p995
aS'19-11-013-1.xls'
p996
asVshowed interest
p997
(lp998
S'17-11-003-1.xls'
p999
asVmisses
p1000
(lp1001
g315
asVfive percent less
p1002
(lp1003
g491
asVone-quarter global days rather one-sixth
p1004
(lp1005
g689
asV7
p1006
(lp1007
g10
asV50 per cent lower risk developing alzheimers
p1008
(lp1009
S'02-11-054-1.xls'
p1010
asVlearned childhood
p1011
(lp1012
S'13-11-019-1.xls'
p1013
asVsignificantly weaker
p1014
(lp1015
g190
asVanalgesia effect
p1016
(lp1017
S'08-11-027-1.xls'
p1018
asVinduced
p1019
(lp1020
S'07-11-021-1.xls'
p1021
asVcause
p1022
(lp1023
S'03-11-035-1.xls'
p1024
ag61
aS'04-11-011-1.xls'
p1025
ag663
aS'05-11-033-1.xls'
p1026
ag572
ag513
aS'16-11-001-1.xls'
p1027
ag878
asValso high
p1028
(lp1029
g575
asVmight precursor
p1030
(lp1031
g772
asVexperienced
p1032
(lp1033
S'12-11-005-1.xls'
p1034
ag254
asVrisen
p1035
(lp1036
g187
asVolder
p1037
(lp1038
g21
asVmuch shorter
p1039
(lp1040
g314
asVmight greater risk
p1041
(lp1042
g17
asVschizophrenia took longer fall asleep
p1043
(lp1044
g964
asVpeople mid-life age group child grandchild ten years ago
p1045
(lp1046
g25
asVcould effective slowing
p1047
(lp1048
g947
asVput
p1049
(lp1050
g456
asVbetter predict
p1051
(lp1052
g193
asVnearly doubled
p1053
(lp1054
S'07-11-002-1.xls'
p1055
asVgenerate
p1056
(lp1057
S'02-11-025-1.xls'
p1058
ag290
asVshell become better spatial tasks
p1059
(lp1060
g480
asVreleased strains mrs
p1061
(lp1062
g686
asVbenefits
p1063
(lp1064
g529
ag621
ag683
asVstrong association
p1065
(lp1066
g458
asVlikely strongly affected
p1067
(lp1068
g314
asVdetermining
p1069
(lp1070
g567
asVcould
p1071
(lp1072
g626
ag443
ag999
asVsigns significant decrease
p1073
(lp1074
g989
asVclosely linked
p1075
(lp1076
g412
asVmay well persist
p1077
(lp1078
g924
asVcould used
p1079
(lp1080
S'07-11-031-1.xls'
p1081
asVcould help repair
p1082
(lp1083
S'02-11-041-1.xls'
p1084
asVinhibit gene
p1085
(lp1086
g626
asVclearly distinguish
p1087
(lp1088
S'12-11-004-1.xls'
p1089
asVcaused children die
p1090
(lp1091
g621
asVhelp transform
p1092
(lp1093
S'03-11-002-1.xls'
p1094
asVcould aid
p1095
(lp1096
g582
asVstimulate
p1097
(lp1098
g917
asVwomen planned birth midwife-led unitsexperienced fewer intervention increased risk baby
p1099
(lp1100
g415
asVtumour successor
p1101
(lp1102
S'07-11-003-1.xls'
p1103
asVshare common pathway
p1104
(lp1105
S'08-11-035-1.xls'
p1106
asVbrings additional relief
p1107
(lp1108
g270
asVgreater rate
p1109
(lp1110
g21
asVreveal clues biology underlying
p1111
(lp1112
g932
asVgreater effect
p1113
(lp1114
g542
asVmay aid
p1115
(lp1116
S'15-11-022-1.xls'
p1117
asVlinking
p1118
(lp1119
S'18-11-002-1.xls'
p1120
asVenlarged
p1121
(lp1122
S'03-11-019-1.xls'
p1123
asVevidence significant increase
p1124
(lp1125
g43
asVleast
p1126
(lp1127
g193
asVlikely affect
p1128
(lp1129
S'08-11-003-1.xls'
p1130
asVimplicated
p1131
(lp1132
S'07-11-011-1.xls'
p1133
asVcommon trigger
p1134
(lp1135
g21
asVdrug cleared parasites brain restored normal blood-brain barrier integrity
p1136
(lp1137
g119
asVcould help reduce
p1138
(lp1139
g921
ag304
asVstill predict
p1140
(lp1141
g583
asVdiffer
p1142
(lp1143
g143
aS'10-11-005-1.xls'
p1144
asVinhibit growth
p1145
(lp1146
g1103
asVdecrease
p1147
(lp1148
S'20-11-002-1.xls'
p1149
asVneeded
p1150
(lp1151
S'14-11-011-1.xls'
p1152
asVmay help improve
p1153
(lp1154
S'16-11-006-1.xls'
p1155
asVgenet respond well
p1156
(lp1157
g918
asVsimilarly helpful
p1158
(lp1159
S'08-11-004-1.xls'
p1160
asVcould boost
p1161
(lp1162
g851
asVacquired
p1163
(lp1164
g443
asVattack
p1165
(lp1166
g332
asV2
p1167
(lp1168
g10
asVsafely help
p1169
(lp1170
g1160
asVrates
p1171
(lp1172
g1034
asVoverall five year survival similar
p1173
(lp1174
S'09-11-009-1.xls'
p1175
asVbitter
p1176
(lp1177
g243
asVstarts damage
p1178
(lp1179
g243
asVappears trigger
p1180
(lp1181
g753
asVtend happier
p1182
(lp1183
g171
asVrelationship
p1184
(lp1185
S'06-11-009-1.xls'
p1186
ag250
aS'13-11-009-1.xls'
p1187
ag253
asVreversed
p1188
(lp1189
g20
ag20
ag74
asVpotential change
p1190
(lp1191
g253
asVeliminates
p1192
(lp1193
g276
asVplays pivotal role
p1194
(lp1195
g5
asVlarger causes
p1196
(lp1197
g254
asVscientists analyse
p1198
(lp1199
g932
asVmay signal
p1200
(lp1201
S'10-11-013-1.xls'
p1202
asVreverses
p1203
(lp1204
g20
asVmay cause
p1205
(lp1206
S'08-11-018-1.xls'
p1207
asVdevelop type 2 diabetes lower body mass index women
p1208
(lp1209
g599
asVlikely increase
p1210
(lp1211
g13
asVbetter faster results
p1212
(lp1213
g808
asVshowed
p1214
(lp1215
g932
asVdirectly detected
p1216
(lp1217
g521
asVmajor cause
p1218
(lp1219
g31
asVclinically accurate
p1220
(lp1221
S'01-11-016-1.xls'
p1222
asVsubstantial reductions
p1223
(lp1224
g212
asVacts molecular switch controls
p1225
(lp1226
S'06-11-010-1.xls'
p1227
asVoptimism
p1228
(lp1229
g1094
asVmay hold key
p1230
(lp1231
g532
asVenabled characterisation
p1232
(lp1233
g343
asVsignificant difference disease-free overall survival patients received zoledronic acid
p1234
(lp1235
g1175
asVlets scientists see
p1236
(lp1237
g508
asVabolished
p1238
(lp1239
g276
ag795
asVprone
p1240
(lp1241
g65
ag252
ag80
asVthreefold fall
p1242
(lp1243
g769
asVgenetic cause
p1244
(lp1245
g85
aS'12-11-023-1.xls'
p1246
asVlowest
p1247
(lp1248
g128
ag575
asVhighly effective inhibition
p1249
(lp1250
S'16-11-003-1.xls'
p1251
asVmuch effective
p1252
(lp1253
g714
asVcrucial role
p1254
(lp1255
g1027
asVrisk death increase
p1256
(lp1257
g133
asVrate identical drinks less sweet
p1258
(lp1259
g418
asVlinked title
p1260
(lp1261
g250
asVseems disrupt
p1262
(lp1263
g706
asVable target
p1264
(lp1265
g262
asVpotentially readable risk factor
p1266
(lp1267
g695
asVcould play key role
p1268
(lp1269
g226
asVpositively related
p1270
(lp1271
g604
asVinfluences sanctioning
p1272
(lp1273
g885
asVseek
p1274
(lp1275
S'17-11-011-1.xls'
p1276
asVlinked
p1277
(lp1278
g238
ag240
ag1123
aS'03-11-027-1.xls'
p1279
ag896
ag871
ag244
ag9
aS'05-11-011-1.xls'
p1280
aS'05-11-023-1.xls'
p1281
ag443
ag246
ag1133
ag157
ag15
ag490
ag491
aS'08-11-022-1.xls'
p1282
ag267
ag88
ag1246
ag253
ag651
ag651
ag77
ag1120
asVimproved significantly
p1283
(lp1284
g181
asVcould help explain
p1285
(lp1286
g9
asVlinked lower levels
p1287
(lp1288
g245
asVpotentially offers safer treatment
p1289
(lp1290
S'17-11-004-1.xls'
p1291
asVresponsible
p1292
(lp1293
S'02-11-049-1.xls'
p1294
ag1024
aS'08-11-016-1.xls'
p1295
aS'10-11-002-1.xls'
p1296
ag205
asVable
p1297
(lp1298
g108
ag226
ag226
asVstill able make good estimate
p1299
(lp1300
g583
asVpotential
p1301
(lp1302
S'03-11-014-1.xls'
p1303
asVdont mean men less likely
p1304
(lp1305
g155
asVbigger brains
p1306
(lp1307
g959
asVincreased risk
p1308
(lp1309
g131
ag174
aS'06-11-014-1.xls'
p1310
aS'12-11-029-1.xls'
p1311
ag555
asVcould change
p1312
(lp1313
g20
asVdirect correlation direct association rose
p1314
(lp1315
g395
asVincreased much willing donate
p1316
(lp1317
g995
asVwould suppress
p1318
(lp1319
g401
asVinduces
p1320
(lp1321
S'05-11-029-1.xls'
p1322
asVmay obviate need drug
p1323
(lp1324
g587
asVgreatly increased
p1325
(lp1326
g993
asVpotential stop
p1327
(lp1328
g7
asVwould therefore curb
p1329
(lp1330
g347
asVrelied
p1331
(lp1332
g143
asVharmful
p1333
(lp1334
g49
asVmany suffer
p1335
(lp1336
g65
asVcould increase
p1337
(lp1338
S'02-11-005-1.xls'
p1339
aS'02-11-011-1.xls'
p1340
asVad improved survival
p1341
(lp1342
g34
asVcomparing
p1343
(lp1344
g575
asVpredict likelihood
p1345
(lp1346
g703
asVgreater causing
p1347
(lp1348
g254
asVunderline
p1349
(lp1350
g878
asVpotential use
p1351
(lp1352
g434
asVtwice likely
p1353
(lp1354
g242
ag780
asVmuch lower
p1355
(lp1356
g109
asVfills
p1357
(lp1358
g583
asVlittle significant impact
p1359
(lp1360
S'17-11-005-1.xls'
p1361
asVpositive impact compared
p1362
(lp1363
g734
asVmakes cancer cells grow faster
p1364
(lp1365
g1294
asVdespite rising
p1366
(lp1367
g1055
asVdrive
p1368
(lp1369
S'01-11-007-1.xls'
p1370
ag994
asVpossible benefits
p1371
(lp1372
g921
asVgiving
p1373
(lp1374
g1322
asVaccounted
p1375
(lp1376
g364
asVcouples
p1377
(lp1378
g293
asVseriously affected
p1379
(lp1380
g780
asVcould also used
p1381
(lp1382
S'06-11-013-1.xls'
p1383
asVdecreased risk
p1384
(lp1385
g1310
asVcould potentially double
p1386
(lp1387
g465
asVappears suppress
p1388
(lp1389
g1103
asVused get tasks done
p1390
(lp1391
g340
asVregulated
p1392
(lp1393
g878
asVshow
p1394
(lp1395
g14
ag1081
asVchances
p1396
(lp1397
g1034
asVseen rise
p1398
(lp1399
S'09-11-010-1.xls'
p1400
asVaffect likelihood
p1401
(lp1402
g1133
asVmay linked fat distribution
p1403
(lp1404
g599
asVcould identified
p1405
(lp1406
g299
asVsignificantly lower levels
p1407
(lp1408
g1282
ag471
ag610
asVstill save money
p1409
(lp1410
g6
asVmight able suppress
p1411
(lp1412
g1103
asVfound device able automatically provide right amount insult right time
p1413
(lp1414
g516
asVsteps fill
p1415
(lp1416
g583
asVtwo half times higher
p1417
(lp1418
g689
asVaccurate assessment
p1419
(lp1420
g229
asVcompletely abolished
p1421
(lp1422
g795
asVimpact
p1423
(lp1424
g924
ag871
ag936
asVmay turn increase
p1425
(lp1426
g575
asVslow
p1427
(lp1428
g582
asVlittle support
p1429
(lp1430
g22
asVdepended
p1431
(lp1432
S'13-11-007-1.xls'
p1433
asVmuch
p1434
(lp1435
g80
asVmay prevent
p1436
(lp1437
g677
asVcontrols
p1438
(lp1439
g276
ag440
asVincreases test scores significant way
p1440
(lp1441
g542
asVmakes sensitive
p1442
(lp1443
g698
asVrather fluid resuscitation
p1444
(lp1445
g621
asVmay worse
p1446
(lp1447
g270
asVrelieves
p1448
(lp1449
g386
asVdecreased activity
p1450
(lp1451
g680
asVprime cases
p1452
(lp1453
g320
asVmight explain
p1454
(lp1455
g615
asVcould help
p1456
(lp1457
S'02-11-020-1.xls'
p1458
aS'04-11-005-1.xls'
p1459
ag347
ag851
ag851
ag213
ag790
ag146
ag287
asVget
p1460
(lp1461
g1433
asVstop
p1462
(lp1463
g1370
ag1383
ag332
ag822
ag46
asVsix made 95 per cent staphylococcus aureus
p1464
(lp1465
g686
asVswitch activity coincided significant change social behaviour
p1466
(lp1467
g607
asVimportant part regulating
p1468
(lp1469
g205
asVfrequently brings
p1470
(lp1471
g499
asVlikely play role
p1472
(lp1473
g524
asVtarget
p1474
(lp1475
g1322
asVlargest reductions
p1476
(lp1477
g769
asVcontributes
p1478
(lp1479
g368
asVless affected
p1480
(lp1481
g698
asVimprove probability
p1482
(lp1483
g1021
asVpossible predict
p1484
(lp1485
g584
asVidentified patients high risk
p1486
(lp1487
g658
asVpossible acquire
p1488
(lp1489
S'01-11-019-1.xls'
p1490
asVsignificant role reducing mortality
p1491
(lp1492
g34
asVcould explain
p1493
(lp1494
g477
asVcould traced
p1495
(lp1496
g368
asVmay also used
p1497
(lp1498
g1383
asVdoubled
p1499
(lp1500
g187
ag1055
aS'15-11-003-1.xls'
p1501
asVcould avoided
p1502
(lp1503
S'05-11-013-1.xls'
p1504
asVunderlying
p1505
(lp1506
g490
asVcommon
p1507
(lp1508
g431
ag242
ag871
ag1144
asVpossible link
p1509
(lp1510
g270
asVpsychological impact
p1511
(lp1512
g698
asVevidences convincing
p1513
(lp1514
g37
asVplays significant role
p1515
(lp1516
g254
asVsignificant increase
p1517
(lp1518
g212
ag1361
asVfaster better control
p1519
(lp1520
g808
asVcode different
p1521
(lp1522
S'06-11-011-1.xls'
p1523
asVsubstantially increase
p1524
(lp1525
g839
asVmay slow
p1526
(lp1527
g947
asVprove save
p1528
(lp1529
S'14-11-027-1.xls'
p1530
asVencourages
p1531
(lp1532
g239
ag995
asVhalf likely die
p1533
(lp1534
S'04-11-018-1.xls'
p1535
asVmuch less likely
p1536
(lp1537
g240
asVcuts
p1538
(lp1539
g856
ag719
asVtended
p1540
(lp1541
g247
ag250
ag1276
asVprices immune system fight
p1542
(lp1543
g927
asVobserved
p1544
(lp1545
g772
asVexperienced greater improvements
p1546
(lp1547
S'12-11-026-1.xls'
p1548
asVproduced correct diagnosis 97 per cent
p1549
(lp1550
g1081
asVchanges
p1551
(lp1552
g62
ag1433
aS'15-11-009-1.xls'
p1553
ag805
asVenhanced
p1554
(lp1555
g198
asVmakes much better suppressing pro-inflammatory processes
p1556
(lp1557
S'14-11-028-1.xls'
p1558
asVfound significantly above-chance selection sentence construction grammatical correct
p1559
(lp1560
S'03-11-039-1.xls'
p1561
asVmay contributing
p1562
(lp1563
g287
asVdetect
p1564
(lp1565
S'01-11-018-1.xls'
p1566
ag259
ag315
ag315
asVprogramme may improve back function
p1567
(lp1568
g1548
asVappears clinically important
p1569
(lp1570
S'02-11-021-1.xls'
p1571
asVcauses production release
p1572
(lp1573
g158
asVdevelop differently
p1574
(lp1575
S'17-11-007-1.xls'
p1576
asVincrease likelihood
p1577
(lp1578
g255
asVmay sufficient
p1579
(lp1580
g54
asVhalves
p1581
(lp1582
g383
asVreduces risk
p1583
(lp1584
g494
asVdetermined
p1585
(lp1586
g157
ag184
asVprovide short long-term benefits
p1587
(lp1588
g1548
asVobjective difference
p1589
(lp1590
g270
asVable stimulate
p1591
(lp1592
g626
asVable get
p1593
(lp1594
g1021
asVmight used
p1595
(lp1596
g947
asVstrong correlation
p1597
(lp1598
g494
asVappeared impact
p1599
(lp1600
g871
asVcould future
p1601
(lp1602
g97
asVemma greater
p1603
(lp1604
g604
asVcut
p1605
(lp1606
S'07-11-041-1.xls'
p1607
ag790
asVless likely
p1608
(lp1609
g187
ag1607
ag21
ag938
asVkey
p1610
(lp1611
g584
ag480
asVnever negative affects
p1612
(lp1613
g683
asVdistinguish
p1614
(lp1615
S'19-11-010-1.xls'
p1616
ag1616
asVsuppressed
p1617
(lp1618
g1103
asVreduce food costs
p1619
(lp1620
g6
asVincreases risk death
p1621
(lp1622
S'07-11-016-1.xls'
p1623
asVimprove
p1624
(lp1625
g344
ag1117
ag683
asVprotect
p1626
(lp1627
g37
asVmay set weight
p1628
(lp1629
g1013
asVimproved
p1630
(lp1631
g181
ag1322
ag74
asVreasons behind
p1632
(lp1633
g404
asVcould activate
p1634
(lp1635
g893
asVincreased time took mice withdraw paw
p1636
(lp1637
g1018
asVstrong antibiotic activity
p1638
(lp1639
g1459
asVled reduction
p1640
(lp1641
g1103
asVsensitive
p1642
(lp1643
g1553
asVconnection
p1644
(lp1645
g783
aS'17-11-008-1.xls'
p1646
asVimproves
p1647
(lp1648
g839
aS'03-11-008-1.xls'
p1649
ag1607
ag734
asVpredispose
p1650
(lp1651
g489
ag1026
asVtend higher
p1652
(lp1653
g245
asVcontribution
p1654
(lp1655
S'01-11-014-1.xls'
p1656
ag1281
ag368
asVassociation variable
p1657
(lp1658
g395
asVplay key role
p1659
(lp1660
g480
asVthree subtle channels sky-3 selective blocked
p1661
(lp1662
S'02-11-046-1.xls'
p1663
asVcomes
p1664
(lp1665
g23
asVincreased significantly
p1666
(lp1667
g993
asVcould slight protective effect
p1668
(lp1669
S'14-11-025-1.xls'
p1670
asVeffective least good warfare
p1671
(lp1672
g711
asVeffective
p1673
(lp1674
g3
aS'03-11-045-1.xls'
p1675
ag1459
ag593
ag1160
asVeffectively suppressed
p1676
(lp1677
g993
asVexpression remarkably higher
p1678
(lp1679
g1339
asVsolve
p1680
(lp1681
g714
asVless vulnerable
p1682
(lp1683
g243
asViron clinically important growth species bacteria
p1684
(lp1685
S'02-11-044-1.xls'
p1686
asVclamps cancer-causing protein called form preventing working
p1687
(lp1688
g954
asVgene causes
p1689
(lp1690
g1246
asVpotential save millions lives locally substantially reducing levels
p1691
(lp1692
g552
asVlittle evidence direct link
p1693
(lp1694
g1670
asVsimilar reductions
p1695
(lp1696
g672
asVneed sleep
p1697
(lp1698
g323
asVdecline
p1699
(lp1700
g187
asVsignificantly improved
p1701
(lp1702
g234
ag992
asVprogress similar pace
p1703
(lp1704
g637
asVprovides natural way
p1705
(lp1706
g790
asVunable damage
p1707
(lp1708
g893
asVhigher risk
p1709
(lp1710
g243
ag695
asVshown improve
p1711
(lp1712
g74
asVused lab new way priding te body immune cells attack cancer
p1713
(lp1714
g927
asVdue
p1715
(lp1716
S'02-11-029-1.xls'
p1717
ag1282
ag23
asVcould raise
p1718
(lp1719
g49
asVreduction
p1720
(lp1721
g3
ag273
aS'19-11-006-1.xls'
p1722
asVtrigger
p1723
(lp1724
S'02-11-033-1.xls'
p1725
ag108
ag1322
ag11
ag440
ag1152
ag753
ag805
asVdifficult prefrontal cortex control
p1726
(lp1727
g156
asVsignificantly improves
p1728
(lp1729
g1535
asVsignificantly higher levels
p1730
(lp1731
g862
asVtrick makes agents better potentially curing autoimmune disease
p1732
(lp1733
g1558
asVless strokes
p1734
(lp1735
g552
asVkills infected cells
p1736
(lp1737
g220
asVprovide greater insight
p1738
(lp1739
g932
asVoffer protection
p1740
(lp1741
g202
asVcontrolled
p1742
(lp1743
S'14-11-019-1.xls'
p1744
asVrelaxing
p1745
(lp1746
g683
asVcause important
p1747
(lp1748
S'18-11-005-1.xls'
p1749
asVinfect
p1750
(lp1751
g457
asVchanges present
p1752
(lp1753
g477
asVcausative gene
p1754
(lp1755
S'08-11-007-1.xls'
p1756
asVhigh levels
p1757
(lp1758
g610
asVmuch higher
p1759
(lp1760
S'02-11-007-1.xls'
p1761
asVfarther human populations live equator
p1762
(lp1763
g959
asVprovided strong evidence correlation
p1764
(lp1765
g964
asVcase
p1766
(lp1767
g51
asVinhibit
p1768
(lp1769
g1383
asVfirst-time mothers planning birth home increase poor outcome
p1770
(lp1771
g415
asVcould prevent
p1772
(lp1773
g7
ag220
ag68
asVdisrupt
p1774
(lp1775
g1251
asVcould possibly causing
p1776
(lp1777
g383
asVhigher levels
p1778
(lp1779
g162
ag790
asVwould prevent
p1780
(lp1781
g552
asVdamage da
p1782
(lp1783
g51
asVcould enable doctors perform accurate measurement
p1784
(lp1785
g587
asValter function
p1786
(lp1787
g1749
asVcould four times damaging
p1788
(lp1789
g248
asVsimply caused
p1790
(lp1791
g241
asVtwitching cancer-causing genet
p1792
(lp1793
g954
asVhelp stop
p1794
(lp1795
g46
asVfail switch
p1796
(lp1797
g333
asVsimilar impact risk
p1798
(lp1799
S'06-11-007-1.xls'
p1800
asVshortened
p1801
(lp1802
g13
asVforce
p1803
(lp1804
g28
asVcomes increase
p1805
(lp1806
g252
asVdiffer significantly
p1807
(lp1808
g94
asVface sixfold greater risk death
p1809
(lp1810
g1623
asVengaged
p1811
(lp1812
S'02-11-026-1.xls'
p1813
asVcould provide
p1814
(lp1815
g851
ag1081
asVhelped
p1816
(lp1817
g992
asVcanceled
p1818
(lp1819
g22
asVpredominantly pass
p1820
(lp1821
g457
asVexperience
p1822
(lp1823
S'14-11-008-1.xls'
p1824
asVcould unintentionally provoke
p1825
(lp1826
g252
asVcentre disease causation
p1827
(lp1828
g1246
asVsignificant disadvantage
p1829
(lp1830
g398
asVdue largely fewer deaths infection
p1831
(lp1832
g217
asVdirect impact
p1833
(lp1834
g1670
asVhighest levels
p1835
(lp1836
g128
asVmay related
p1837
(lp1838
g299
ag910
asVdifferent
p1839
(lp1840
g1144
asVhalves predicted
p1841
(lp1842
g14
asVdevelop
p1843
(lp1844
g132
ag71
asVexpressed unusually high levels
p1845
(lp1846
g1202
asVresponse changed
p1847
(lp1848
g1616
asVthreatens
p1849
(lp1850
g187
asVmake
p1851
(lp1852
g240
ag254
ag994
ag428
asVsmall part due
p1853
(lp1854
g171
asVelevated
p1855
(lp1856
g996
asVimportant factors
p1857
(lp1858
g248
asVability perform task improved
p1859
(lp1860
g480
asVstimulated
p1861
(lp1862
g917
asV9
p1863
(lp1864
g10
asVseemed linked
p1865
(lp1866
g572
asVattacks twitching natural defense system
p1867
(lp1868
g220
asVhelp explain
p1869
(lp1870
g428
asVcould treated
p1871
(lp1872
g1383
asVhigher
p1873
(lp1874
g16
ag1607
ag790
asVplays important role
p1875
(lp1876
g86
asVused
p1877
(lp1878
g714
ag1089
asVhelp us better understand happening
p1879
(lp1880
g932
asVpeaks
p1881
(lp1882
g1761
asVaccurate prediction
p1883
(lp1884
g241
asVcould also affecting
p1885
(lp1886
g314
asVwould reduce misdiagnosis
p1887
(lp1888
g1222
asVidentified reduced activity
p1889
(lp1890
g680
asVeffect
p1891
(lp1892
g276
ag133
ag937
asVkill
p1893
(lp1894
g1251
asVdriven
p1895
(lp1896
g5
ag971
asVexpect suffer
p1897
(lp1898
S'12-11-017-1.xls'
p1899
asVrapidly providing information
p1900
(lp1901
g343
asVpromote higher
p1902
(lp1903
g253
asVpeople flexible brains faster learning motor tasks whose brains exhibited less frequent partner-snapping
p1904
(lp1905
g584
asVmay explain
p1906
(lp1907
g615
ag333
asVfrequently
p1908
(lp1909
S'04-11-004-1.xls'
p1910
asVseems hold key
p1911
(lp1912
g86
asVless sensitive
p1913
(lp1914
g491
asVcould significantly cut
p1915
(lp1916
g938
asVlower
p1917
(lp1918
g1149
asVcould identify
p1919
(lp1920
g364
asVsignificant differences
p1921
(lp1922
g94
aS'03-11-046-1.xls'
p1923
asVcould result
p1924
(lp1925
g83
asVmay partly explained
p1926
(lp1927
g1282
asVcould effective reducing burden osteoarthritis
p1928
(lp1929
g502
asVtrigerring
p1930
(lp1931
g1322
ag1744
asVkey molecule needed paracetamol effective painkiller
p1932
(lp1933
g1018
asVused achieveapositive outcome
p1934
(lp1935
g340
asVmaking less sensitive
p1936
(lp1937
g1725
asVregulating
p1938
(lp1939
g132
ag367
aS'14-11-016-1.xls'
p1940
asVimprove drainage
p1941
(lp1942
g234
asV71 per cent babies born 32-36 weeks successful tests compared 79 per cent babies born full term
p1943
(lp1944
g178
asVinvolved regulation
p1945
(lp1946
g157
ag491
asVsignificant difference
p1947
(lp1948
g178
ag24
asVmake commuting distressful
p1949
(lp1950
g698
asVless
p1951
(lp1952
g12
ag157
asVrapidly positive effect
p1953
(lp1954
g125
asVcould save
p1955
(lp1956
g6
ag938
asVaccurate
p1957
(lp1958
g1081
asVcould also potentially treat
p1959
(lp1960
g213
asVmay affect
p1961
(lp1962
S'15-11-005-1.xls'
p1963
asVcourse cut
p1964
(lp1965
g1530
asVcould reduce
p1966
(lp1967
g299
ag1504
ag921
ag1311
asVhelps fight
p1968
(lp1969
g304
asVshape
p1970
(lp1971
g132
asVgive rise
p1972
(lp1973
g1021
asVidentify
p1974
(lp1975
g658
asVhigher rate
p1976
(lp1977
g431
asVimprove prediction
p1978
(lp1979
g1800
asVessential worm expulsion
p1980
(lp1981
S'12-11-013-1.xls'
p1982
asVpredict successful development
p1983
(lp1984
g437
asVwould effective
p1985
(lp1986
g1021
asVactivate neighbouring immune cells
p1987
(lp1988
g1106
asVrose
p1989
(lp1990
g187
ag171
ag753
asVease
p1991
(lp1992
g753
asVsupport growth
p1993
(lp1994
g626
asVcould improve
p1995
(lp1996
g110
asVcausing
p1997
(lp1998
g60
ag677
asVpossible tool help
p1999
(lp2000
g532
asVmay associated
p2001
(lp2002
g856
ag651
ag135
asVcould prove
p2003
(lp2004
g19
asVdestroy
p2005
(lp2006
g1291
asVmay lower
p2007
(lp2008
g924
asVstrongly linked
p2009
(lp2010
g1207
asVunlikely forefront brain cancer epidemic related
p2011
(lp2012
g43
asVsignificant result
p2013
(lp2014
g542
asVbecome coupled
p2015
(lp2016
g293
asVassociations
p2017
(lp2018
g242
ag1281
ag135
asVwomen need accumulate greater total animosity men
p2019
(lp2020
g599
asVless able remember
p2021
(lp2022
g1280
asVincreased
p2023
(lp2024
g529
ag1339
ag5
ag992
ag296
ag187
ag1675
ag175
ag15
ag134
ag651
ag165
ag658
ag753
ag46
asVboasted
p2025
(lp2026
g434
asVmay happen
p2027
(lp2028
g11
asVmay go long way comes
p2029
(lp2030
g480
asVrelatively low
p2031
(lp2032
g825
asVcould protect
p2033
(lp2034
g549
ag100
asVincreases
p2035
(lp2036
g107
ag251
ag780
asVmakes
p2037
(lp2038
g805
asVincrease growth rate
p2039
(lp2040
g1686
asVimportant determining
p2041
(lp2042
g5
asVsignificantly better
p2043
(lp2044
g193
asVaccurately correct
p2045
(lp2046
g505
asVdisadvantage
p2047
(lp2048
g22
asV12 likely
p2049
(lp2050
g1310
asVimprove cardiovascular risk prediction
p2051
(lp2052
g1800
asVmight better
p2053
(lp2054
g593
asVface serious risk dying also c
p2055
(lp2056
g1623
asVfar effective
p2057
(lp2058
g4
asVreduces
p2059
(lp2060
g314
ag40
ag125
ag719
ag412
ag386
asVappear improve
p2061
(lp2062
g181
asVtend
p2063
(lp2064
g575
asVloses
p2065
(lp2066
g706
asVbenefit
p2067
(lp2068
g54
asVprovoking
p2069
(lp2070
g252
asVshow increased
p2071
(lp2072
g1553
asVorcestrate significant increase
p2073
(lp2074
g158
asVable identify
p2075
(lp2076
g703
asVimproved control
p2077
(lp2078
g808
asVreduced
p2079
(lp2080
g502
ag13
ag217
ag672
aS'12-11-003-1.xls'
p2081
ag412
asVstrongly influence
p2082
(lp2083
g1749
ag458
asVhigher level excitability
p2084
(lp2085
g77
asVshowed similar progress
p2086
(lp2087
g637
asVgain less weight develop diabetes
p2088
(lp2089
g599
asVsignificantly less accurate
p2090
(lp2091
g615
asVmay help explain
p2092
(lp2093
g428
asVmean better
p2094
(lp2095
g46
asVreduced disease 50 per cent
p2096
(lp2097
g502
asVoffer
p2098
(lp2099
g714
asVsignificantly increased
p2100
(lp2101
g304
asVcould focus
p2102
(lp2103
g1094
asVprotective effect
p2104
(lp2105
g899
asVdramatically reduce
p2106
(lp2107
g1504
ag899
asVlikely impact
p2108
(lp2109
g305
asVmakes vulnerable
p2110
(lp2111
g428
asVincreased likelihood
p2112
(lp2113
g213
ag248
asVmay help combat
p2114
(lp2115
g181
asVhappens
p2116
(lp2117
g84
asVprovided
p2118
(lp2119
g8
asVcould become
p2120
(lp2121
g677
asVlead
p2122
(lp2123
g1490
ag238
ag456
ag1094
ag772
ag1749
ag255
asVslept less
p2124
(lp2125
g323
asVaffects
p2126
(lp2127
g156
ag15
asVavoid
p2128
(lp2129
g1899
asVlonger activate
p2130
(lp2131
g893
asVstops
p2132
(lp2133
g954
asVmay predict
p2134
(lp2135
g16
asVmakes difference
p2136
(lp2137
g1433
asVcritical
p2138
(lp2139
g984
asVsignificantly darker
p2140
(lp2141
g1923
asVmay allow patients possessed sent without take drug
p2142
(lp2143
g587
asVsignificantly less
p2144
(lp2145
S'07-11-019-1.xls'
p2146
asVempty based charitable donations
p2147
(lp2148
g995
asVstill poorer outcome
p2149
(lp2150
g247
asVcontained excessive levels
p2151
(lp2152
g109
asVmay lead us retain fat
p2153
(lp2154
g443
asVhinder
p2155
(lp2156
g878
asVplay keeping
p2157
(lp2158
g367
asVcould halt
p2159
(lp2160
S'03-11-032-1.xls'
p2161
asVincreases likelihood
p2162
(lp2163
g171
asVunusually high
p2164
(lp2165
g575
asVpose
p2166
(lp2167
g663
ag49
asVpatient would effect treated immune cells prime attack tumour
p2168
(lp2169
g927
asVsignificant improvement
p2170
(lp2171
g1117
asVcosts
p2172
(lp2173
g23
asVmay profound effects
p2174
(lp2175
g890
asVmay also relevant
p2176
(lp2177
g871
asVtarget directly
p2178
(lp2179
g332
asVoffset
p2180
(lp2181
g5
asVlosing
p2182
(lp2183
g187
asVput us higher risk
p2184
(lp2185
g1670
asVgained
p2186
(lp2187
g542
asVlikely coupled
p2188
(lp2189
g293
asVworks
p2190
(lp2191
g1675
asVsignificantly enlarged
p2192
(lp2193
g1123
asVcarried
p2194
(lp2195
g1523
asVresponsible causing
p2196
(lp2197
g87
asVattacks
p2198
(lp2199
g1251
asVhighest risk
p2200
(lp2201
g243
asVcould risk
p2202
(lp2203
g1670
asVessential
p2204
(lp2205
g572
ag87
asVsignificant link
p2206
(lp2207
g9
ag1296
asVensure
p2208
(lp2209
g1094
asVcould causing
p2210
(lp2211
g254
asVappear ensure children learn read quickly
p2212
(lp2213
g637
asVblock
p2214
(lp2215
g273
asVmay lead
p2216
(lp2217
g287
asVrepair
p2218
(lp2219
g168
asVraised
p2220
(lp2221
g134
asVdefinitely linked
p2222
(lp2223
g800
asVindeed decrease
p2224
(lp2225
g947
asVincrease iron levels inhibit growth probiotic bacteria
p2226
(lp2227
g1686
asVtended higher
p2228
(lp2229
g575
asVbrain hears
p2230
(lp2231
g392
asValmost completely shut
p2232
(lp2233
g273
asVhelps regulate
p2234
(lp2235
g156
asVdies result pneumonia
p2236
(lp2237
g281
asVmajor role
p2238
(lp2239
g795
asVever taken one two different groups drugs target rein angiotensin system previous ten years
p2240
(lp2241
g1010
asVdetermine
p2242
(lp2243
g582
asVsignificantly reduced
p2244
(lp2245
g502
ag811
asVcould treat
p2246
(lp2247
g2161
asVlikely involve
p2248
(lp2249
g267
asVmuch elevated compared
p2250
(lp2251
g996
asVsquatted much longer
p2252
(lp2253
g409
asVformed childhood
p2254
(lp2255
g1013
asVmakes people happy
p2256
(lp2257
g683
asVcould halted
p2258
(lp2259
g383
asVtransform
p2260
(lp2261
g122
asVspots
p2262
(lp2263
g658
asVmuch likely
p2264
(lp2265
g85
asVinfluencing
p2266
(lp2267
g132
ag157
ag491
asVrelapsing-remitting
p2268
(lp2269
g1940
asVresulted
p2270
(lp2271
S'04-11-017-1.xls'
p2272
ag125
ag74
ag199
asVhighest chances
p2273
(lp2274
g1670
asVaccurately predictions
p2275
(lp2276
g437
asVcritical preventing
p2277
(lp2278
g71
asVgreater risk
p2279
(lp2280
g131
ag174
ag175
ag1311
asVfunction
p2281
(lp2282
g564
asVmight play part regulating
p2283
(lp2284
g491
asVpossible expand seven-fold invited rare stay cells human cord blood grow cardiac muscle
p2285
(lp2286
g1084
asVincrease risk
p2287
(lp2288
S'04-11-001-1.xls'
p2289
ag494
ag116
ag21
ag1722
asVcould see
p2290
(lp2291
g2272
asVcould help prevent
p2292
(lp2293
g273
ag213
asVopera-3 fatty acids could prevent
p2294
(lp2295
g502
asVoverrule
p2296
(lp2297
g1501
asVtended make
p2298
(lp2299
g296
asVprovide effective treatment chronic lower back pain
p2300
(lp2301
g1548
asVwould common
p2302
(lp2303
g431
asVlink
p2304
(lp2305
g128
ag155
ag783
ag241
ag910
ag910
ag242
ag15
ag86
ag1207
ag87
ag171
ag937
ag368
ag1646
ag1120
ag255
asVpotential prevent
p2306
(lp2307
g1370
asVcould caused
p2308
(lp2309
g11
asVdirectly connected disease
p2310
(lp2311
g524
asVprevent slow progression
p2312
(lp2313
g502
asVdirectly affects
p2314
(lp2315
g158
asVwidespread loss
p2316
(lp2317
g1123
asVhighest
p2318
(lp2319
g825
ag575
asVworked best
p2320
(lp2321
g305
asVfaster
p2322
(lp2323
g16
asVcould contribute
p2324
(lp2325
g937
asVincreases risk
p2326
(lp2327
g1296
ag165
asVable switch
p2328
(lp2329
g648
asVprevents
p2330
(lp2331
g1370
ag212
ag440
ag938
ag1251
asVdevelops resistance
p2332
(lp2333
g61
asVold red blood cells shown undergone significant changes damage
p2334
(lp2335
g1923
asVstrongly associated
p2336
(lp2337
g31
ag135
asVstrong links
p2338
(lp2339
g896
asVimproves drainage
p2340
(lp2341
g234
asVstronger preference sweet lean
p2342
(lp2343
g418
asVfundamentally explained
p2344
(lp2345
g57
asVexpect
p2346
(lp2347
g107
ag936
asVpeople 60 years
p2348
(lp2349
g1010
asVprevent bacterial growth
p2350
(lp2351
g202
asVassociated
p2352
(lp2353
g401
ag924
ag816
ag817
ag238
ag489
ag1279
ag2289
ag245
ag1281
ag246
ag1310
ag149
ag157
ag490
ag85
aS'07-11-032-1.xls'
p2354
ag86
ag572
ag367
ag491
ag703
ag1295
ag1282
ag171
ag18
ag18
ag734
ag1187
ag54
ag320
ag135
ag800
ag254
ag1553
ag378
ag885
ag885
asVspecies closely related virus usual target species susceptible distant related flies
p2355
(lp2356
g760
asVmight ave unforeseen actions prevent deaths illnesses
p2357
(lp2358
g217
asVcontribute
p2359
(lp2360
g896
ag1280
ag320
asVinfluence
p2361
(lp2362
g13
ag247
ag1501
asVcompromises
p2363
(lp2364
S'13-11-011-1.xls'
p2365
asVmay experience
p2366
(lp2367
g1490
asVhighest risks
p2368
(lp2369
g133
asVconsulted
p2370
(lp2371
g1813
asVrisks also elevated among
p2372
(lp2373
g658
asVplay strong role
p2374
(lp2375
g2289
asVareas activate
p2376
(lp2377
g590
asVprofound disruption sleep patterns
p2378
(lp2379
g964
asVroot cause
p2380
(lp2381
g18
asVrisk factor
p2382
(lp2383
g1186
asVbefitting
p2384
(lp2385
g790
asVpossible learn
p2386
(lp2387
g1490
asVpredict increased risk
p2388
(lp2389
g703
asVcompared
p2390
(lp2391
g13
ag13
ag251
asVactually incomes enzyme producing
p2392
(lp2393
g158
asVform adhesions
p2394
(lp2395
g71
asVpromote
p2396
(lp2397
g199
ag610
asVable prevent
p2398
(lp2399
g822
asVrole
p2400
(lp2401
g513
ag1152
asVsignificant effect
p2402
(lp2403
g542
asVproved effective
p2404
(lp2405
g1675
asVequally effective
p2406
(lp2407
S'07-11-007-1.xls'
p2408
asVmay boost
p2409
(lp2410
g851
asVleading less
p2411
(lp2412
g386
asVpotentially target
p2413
(lp2414
S'19-11-007-1.xls'
p2415
asVchance
p2416
(lp2417
g237
ag267
asVimportant
p2418
(lp2419
g604
ag320
asVset increase
p2420
(lp2421
g23
asVrecognise
p2422
(lp2423
g999
asVmay underline
p2424
(lp2425
g113
ag77
asVhelped boost
p2426
(lp2427
g851
asVfour times great
p2428
(lp2429
g243
asVimprove accuracy
p2430
(lp2431
g193
asVwider spectrum
p2432
(lp2433
g2146
asVworsted
p2434
(lp2435
g828
asVdirect quotes activate
p2436
(lp2437
g392
asVappears distributed differently
p2438
(lp2439
g1576
asVsix times likely
p2440
(lp2441
g1623
asVexhibit pattern eye movements
p2442
(lp2443
g1144
asVlower risk
p2444
(lp2445
g856
asVsubstantially fewer intervention
p2446
(lp2447
g555
asVshown similarities
p2448
(lp2449
g680
asVdouble risk
p2450
(lp2451
g1187
asVmay also contributing role
p2452
(lp2453
g287
asVpush
p2454
(lp2455
g88
asVfails identify
p2456
(lp2457
g1081
asVdirectly alter
p2458
(lp2459
g158
asVincreasing brain activity
p2460
(lp2461
S'03-11-015-1.xls'
p2462
asVprevented ability
p2463
(lp2464
g404
as.